target datalayout = "e-m:e-p270:32:32-p271:32:32-p272:64:64-i64:64-i128:128-f80:128-n8:16:32:64-S128"
target triple = "x86_64-unknown-linux-gnu"

%"class.(anonymous namespace)::HermesABIRuntimeWrapper" = type { %"class.facebook::jsi::Runtime", ptr, ptr, ptr }
%"class.facebook::jsi::Runtime" = type { ptr }
%struct.HermesABIRuntimeVTable = type { ptr }

; Function Attrs: mustprogress nounwind uwtable
define internal void @_ZN12_GLOBAL__N_123HermesABIRuntimeWrapperD2Ev(ptr noundef nonnull align 8 dereferenceable(32) %this) unnamed_addr #1 align 2 personality ptr @__gxx_personality_v0 {
entry:
  %this.addr = alloca ptr, align 8
  store ptr %this, ptr %this.addr, align 8
  %this1 = load ptr, ptr %this.addr, align 8
  store ptr getelementptr inbounds ({ [73 x ptr] }, ptr @_ZTVN12_GLOBAL__N_123HermesABIRuntimeWrapperE, i32 0, i32 0, i32 2), ptr %this1, align 8
  %vtable_ = getelementptr inbounds %"class.(anonymous namespace)::HermesABIRuntimeWrapper", ptr %this1, i32 0, i32 2
  %0 = load ptr, ptr %vtable_, align 8
  %release = getelementptr inbounds %struct.HermesABIRuntimeVTable, ptr %0, i32 0, i32 0
  %1 = load ptr, ptr %release, align 8
  %abiRt_ = getelementptr inbounds %"class.(anonymous namespace)::HermesABIRuntimeWrapper", ptr %this1, i32 0, i32 3
  %2 = load ptr, ptr %abiRt_, align 8
  invoke void %1(ptr noundef %2)
          to label %invoke.cont unwind label %terminate.lpad

invoke.cont:                                      ; preds = %entry
  call void @_ZN8facebook3jsi7RuntimeD2Ev(ptr noundef nonnull align 8 dereferenceable(8) %this1) #9
  ret void

terminate.lpad:                                   ; preds = %entry
  %3 = landingpad { ptr, i32 }
          catch ptr null
  %4 = extractvalue { ptr, i32 } %3, 0
  call void @__clang_call_terminate(ptr %4) #12
  unreachable
}